; ModuleID = '35/280.c'
source_filename = "35/280.c"
target datalayout = "e-m:e-p270:32:32-p271:32:32-p272:64:64-i64:64-f80:128-n8:16:32:64-S128"
target triple = "x86_64-pc-linux-gnu"

@.str = private unnamed_addr constant [6 x i8] c"%d,%d\00", align 1
@.str.1 = private unnamed_addr constant [3 x i8] c"%d\00", align 1
@.str.2 = private unnamed_addr constant [6 x i8] c"%d+%d\00", align 1
@.str.3 = private unnamed_addr constant [3 x i8] c"No\00", align 1

; Function Attrs: noinline nounwind uwtable
define dso_local i32 @main() #0 {
  %1 = alloca i32, align 4
  %2 = alloca [10 x [10 x i32]], align 16
  %3 = alloca i32, align 4
  %4 = alloca i32, align 4
  %5 = alloca i32, align 4
  %6 = alloca i32, align 4
  %7 = alloca i32, align 4
  %8 = alloca [10 x i32], align 16
  %9 = alloca [10 x i32], align 16
  store i32 0, i32* %1, align 4
  %10 = call i32 (i8*, ...) @__isoc99_scanf(i8* getelementptr inbounds ([6 x i8], [6 x i8]* @.str, i64 0, i64 0), i32* %3, i32* %4)
  store i32 0, i32* %5, align 4
  br label %11

11:                                               ; preds = %32, %0
  %12 = load i32, i32* %5, align 4
  %13 = load i32, i32* %3, align 4
  %14 = icmp slt i32 %12, %13
  br i1 %14, label %15, label %35

15:                                               ; preds = %11
  store i32 0, i32* %6, align 4
  br label %16

16:                                               ; preds = %28, %15
  %17 = load i32, i32* %6, align 4
  %18 = load i32, i32* %4, align 4
  %19 = icmp slt i32 %17, %18
  br i1 %19, label %20, label %31

20:                                               ; preds = %16
  %21 = load i32, i32* %5, align 4
  %22 = sext i32 %21 to i64
  %23 = getelementptr inbounds [10 x [10 x i32]], [10 x [10 x i32]]* %2, i64 0, i64 %22
  %24 = load i32, i32* %6, align 4
  %25 = sext i32 %24 to i64
  %26 = getelementptr inbounds [10 x i32], [10 x i32]* %23, i64 0, i64 %25
  %27 = call i32 (i8*, ...) @__isoc99_scanf(i8* getelementptr inbounds ([3 x i8], [3 x i8]* @.str.1, i64 0, i64 0), i32* %26)
  br label %28

28:                                               ; preds = %20
  %29 = load i32, i32* %6, align 4
  %30 = add nsw i32 %29, 1
  store i32 %30, i32* %6, align 4
  br label %16

31:                                               ; preds = %16
  br label %32

32:                                               ; preds = %31
  %33 = load i32, i32* %5, align 4
  %34 = add nsw i32 %33, 1
  store i32 %34, i32* %5, align 4
  br label %11

35:                                               ; preds = %11
  store i32 0, i32* %5, align 4
  br label %36

36:                                               ; preds = %78, %35
  %37 = load i32, i32* %5, align 4
  %38 = load i32, i32* %3, align 4
  %39 = icmp slt i32 %37, %38
  br i1 %39, label %40, label %81

40:                                               ; preds = %36
  store i32 -10000, i32* %7, align 4
  store i32 0, i32* %6, align 4
  br label %41

41:                                               ; preds = %74, %40
  %42 = load i32, i32* %6, align 4
  %43 = load i32, i32* %4, align 4
  %44 = icmp slt i32 %42, %43
  br i1 %44, label %45, label %77

45:                                               ; preds = %41
  %46 = load i32, i32* %5, align 4
  %47 = sext i32 %46 to i64
  %48 = getelementptr inbounds [10 x [10 x i32]], [10 x [10 x i32]]* %2, i64 0, i64 %47
  %49 = load i32, i32* %6, align 4
  %50 = sext i32 %49 to i64
  %51 = getelementptr inbounds [10 x i32], [10 x i32]* %48, i64 0, i64 %50
  %52 = load i32, i32* %51, align 4
  %53 = load i32, i32* %7, align 4
  %54 = icmp sgt i32 %52, %53
  br i1 %54, label %55, label %73

55:                                               ; preds = %45
  %56 = load i32, i32* %5, align 4
  %57 = sext i32 %56 to i64
  %58 = getelementptr inbounds [10 x [10 x i32]], [10 x [10 x i32]]* %2, i64 0, i64 %57
  %59 = load i32, i32* %6, align 4
  %60 = sext i32 %59 to i64
  %61 = getelementptr inbounds [10 x i32], [10 x i32]* %58, i64 0, i64 %60
  %62 = load i32, i32* %61, align 4
  %63 = load i32, i32* %5, align 4
  %64 = sext i32 %63 to i64
  %65 = getelementptr inbounds [10 x i32], [10 x i32]* %8, i64 0, i64 %64
  store i32 %62, i32* %65, align 4
  %66 = load i32, i32* %5, align 4
  %67 = sext i32 %66 to i64
  %68 = getelementptr inbounds [10 x [10 x i32]], [10 x [10 x i32]]* %2, i64 0, i64 %67
  %69 = load i32, i32* %6, align 4
  %70 = sext i32 %69 to i64
  %71 = getelementptr inbounds [10 x i32], [10 x i32]* %68, i64 0, i64 %70
  %72 = load i32, i32* %71, align 4
  store i32 %72, i32* %7, align 4
  br label %73

73:                                               ; preds = %55, %45
  br label %74

74:                                               ; preds = %73
  %75 = load i32, i32* %6, align 4
  %76 = add nsw i32 %75, 1
  store i32 %76, i32* %6, align 4
  br label %41

77:                                               ; preds = %41
  br label %78

78:                                               ; preds = %77
  %79 = load i32, i32* %5, align 4
  %80 = add nsw i32 %79, 1
  store i32 %80, i32* %5, align 4
  br label %36

81:                                               ; preds = %36
  store i32 0, i32* %6, align 4
  br label %82

82:                                               ; preds = %124, %81
  %83 = load i32, i32* %6, align 4
  %84 = load i32, i32* %4, align 4
  %85 = icmp slt i32 %83, %84
  br i1 %85, label %86, label %127

86:                                               ; preds = %82
  store i32 100000, i32* %7, align 4
  store i32 0, i32* %5, align 4
  br label %87

87:                                               ; preds = %120, %86
  %88 = load i32, i32* %5, align 4
  %89 = load i32, i32* %3, align 4
  %90 = icmp slt i32 %88, %89
  br i1 %90, label %91, label %123

91:                                               ; preds = %87
  %92 = load i32, i32* %5, align 4
  %93 = sext i32 %92 to i64
  %94 = getelementptr inbounds [10 x [10 x i32]], [10 x [10 x i32]]* %2, i64 0, i64 %93
  %95 = load i32, i32* %6, align 4
  %96 = sext i32 %95 to i64
  %97 = getelementptr inbounds [10 x i32], [10 x i32]* %94, i64 0, i64 %96
  %98 = load i32, i32* %97, align 4
  %99 = load i32, i32* %7, align 4
  %100 = icmp slt i32 %98, %99
  br i1 %100, label %101, label %119

101:                                              ; preds = %91
  %102 = load i32, i32* %5, align 4
  %103 = sext i32 %102 to i64
  %104 = getelementptr inbounds [10 x [10 x i32]], [10 x [10 x i32]]* %2, i64 0, i64 %103
  %105 = load i32, i32* %6, align 4
  %106 = sext i32 %105 to i64
  %107 = getelementptr inbounds [10 x i32], [10 x i32]* %104, i64 0, i64 %106
  %108 = load i32, i32* %107, align 4
  store i32 %108, i32* %7, align 4
  %109 = load i32, i32* %5, align 4
  %110 = sext i32 %109 to i64
  %111 = getelementptr inbounds [10 x [10 x i32]], [10 x [10 x i32]]* %2, i64 0, i64 %110
  %112 = load i32, i32* %6, align 4
  %113 = sext i32 %112 to i64
  %114 = getelementptr inbounds [10 x i32], [10 x i32]* %111, i64 0, i64 %113
  %115 = load i32, i32* %114, align 4
  %116 = load i32, i32* %6, align 4
  %117 = sext i32 %116 to i64
  %118 = getelementptr inbounds [10 x i32], [10 x i32]* %9, i64 0, i64 %117
  store i32 %115, i32* %118, align 4
  br label %119

119:                                              ; preds = %101, %91
  br label %120

120:                                              ; preds = %119
  %121 = load i32, i32* %5, align 4
  %122 = add nsw i32 %121, 1
  store i32 %122, i32* %5, align 4
  br label %87

123:                                              ; preds = %87
  br label %124

124:                                              ; preds = %123
  %125 = load i32, i32* %6, align 4
  %126 = add nsw i32 %125, 1
  store i32 %126, i32* %6, align 4
  br label %82

127:                                              ; preds = %82
  store i32 0, i32* %5, align 4
  br label %128

128:                                              ; preds = %172, %127
  %129 = load i32, i32* %5, align 4
  %130 = load i32, i32* %3, align 4
  %131 = icmp slt i32 %129, %130
  br i1 %131, label %132, label %175

132:                                              ; preds = %128
  store i32 0, i32* %6, align 4
  br label %133

133:                                              ; preds = %168, %132
  %134 = load i32, i32* %6, align 4
  %135 = load i32, i32* %4, align 4
  %136 = icmp slt i32 %134, %135
  br i1 %136, label %137, label %171

137:                                              ; preds = %133
  %138 = load i32, i32* %5, align 4
  %139 = sext i32 %138 to i64
  %140 = getelementptr inbounds [10 x [10 x i32]], [10 x [10 x i32]]* %2, i64 0, i64 %139
  %141 = load i32, i32* %6, align 4
  %142 = sext i32 %141 to i64
  %143 = getelementptr inbounds [10 x i32], [10 x i32]* %140, i64 0, i64 %142
  %144 = load i32, i32* %143, align 4
  %145 = load i32, i32* %5, align 4
  %146 = sext i32 %145 to i64
  %147 = getelementptr inbounds [10 x i32], [10 x i32]* %8, i64 0, i64 %146
  %148 = load i32, i32* %147, align 4
  %149 = icmp eq i32 %144, %148
  br i1 %149, label %150, label %167

150:                                              ; preds = %137
  %151 = load i32, i32* %5, align 4
  %152 = sext i32 %151 to i64
  %153 = getelementptr inbounds [10 x [10 x i32]], [10 x [10 x i32]]* %2, i64 0, i64 %152
  %154 = load i32, i32* %6, align 4
  %155 = sext i32 %154 to i64
  %156 = getelementptr inbounds [10 x i32], [10 x i32]* %153, i64 0, i64 %155
  %157 = load i32, i32* %156, align 4
  %158 = load i32, i32* %6, align 4
  %159 = sext i32 %158 to i64
  %160 = getelementptr inbounds [10 x i32], [10 x i32]* %9, i64 0, i64 %159
  %161 = load i32, i32* %160, align 4
  %162 = icmp eq i32 %157, %161
  br i1 %162, label %163, label %167

163:                                              ; preds = %150
  %164 = load i32, i32* %5, align 4
  %165 = load i32, i32* %6, align 4
  %166 = call i32 (i8*, ...) @printf(i8* getelementptr inbounds ([6 x i8], [6 x i8]* @.str.2, i64 0, i64 0), i32 %164, i32 %165)
  store i32 0, i32* %1, align 4
  br label %177

167:                                              ; preds = %150, %137
  br label %168

168:                                              ; preds = %167
  %169 = load i32, i32* %6, align 4
  %170 = add nsw i32 %169, 1
  store i32 %170, i32* %6, align 4
  br label %133

171:                                              ; preds = %133
  br label %172

172:                                              ; preds = %171
  %173 = load i32, i32* %5, align 4
  %174 = add nsw i32 %173, 1
  store i32 %174, i32* %5, align 4
  br label %128

175:                                              ; preds = %128
  %176 = call i32 (i8*, ...) @printf(i8* getelementptr inbounds ([3 x i8], [3 x i8]* @.str.3, i64 0, i64 0))
  store i32 0, i32* %1, align 4
  br label %177

177:                                              ; preds = %175, %163
  %178 = load i32, i32* %1, align 4
  ret i32 %178
}

declare dso_local i32 @__isoc99_scanf(i8*, ...) #1

declare dso_local i32 @printf(i8*, ...) #1


!llvm.module.flags = !{!0}
!llvm.ident = !{!1}

!0 = !{i32 1, !"wchar_size", i32 4}
!1 = !{!"clang version 10.0.0-4ubuntu1 "}
